target datalayout = "e-m:e-p270:32:32-p271:32:32-p272:64:64-i64:64-i128:128-f80:128-n8:16:32:64-S128"
target triple = "x86_64-pc-linux-gnu"

%struct.avifScalingMode = type { %struct.avifFraction, %struct.avifFraction }
%struct.avifFraction = type { i32, i32 }
%struct.avifCodecEncodeOutput = type { %struct.avifEncodeSampleArray }
%struct.avifEncodeSampleArray = type { ptr, i32, i32, i32 }
%struct.avifEncodeSample = type { %struct.avifRWData, i32 }
%struct.avifRWData = type { ptr, i64 }
%struct.avifEncoder = type { i32, i32, i32, i32, i64, i32, i32, i32, i32, i32, i32, i32, i32, i32, i32, i32, %struct.avifScalingMode, %struct.avifIOStats, %struct.avifDiagnostics, ptr, ptr, i32 }
%struct.avifIOStats = type { i64, i64 }
%struct.avifDiagnostics = type { [256 x i8] }
%struct.avifEncoderData = type { %struct.avifEncoderItemArray, %struct.avifEncoderFrameArray, i32, i32, i32, i32, %struct.avifEncoder, i32, i32, i32, i32, ptr, i16, i16, %struct.avifEncoderItemIdArray, i32, i32, i64, ptr, ptr }
%struct.avifEncoderItemArray = type { ptr, i32, i32, i32 }
%struct.avifEncoderFrameArray = type { ptr, i32, i32, i32 }
%struct.avifEncoderItemIdArray = type { ptr, i32, i32, i32 }
%struct.avifEncoderItem = type { i16, [4 x i8], ptr, ptr, %struct.avifRWData, %struct.avifCodecConfigurationBox, i32, i32, i32, ptr, i64, ptr, i64, %struct.avifOffsetFixupArray, i16, ptr, i32, i32, i32, i32, i32, i16, %struct.ipmaArray }
%struct.avifCodecConfigurationBox = type { i8, i8, i8, i8, i8, i8, i8, i8, i8 }
%struct.avifOffsetFixupArray = type { ptr, i32, i32, i32 }
%struct.ipmaArray = type { [16 x i8], [16 x i32], i8 }

; Function Attrs: nounwind uwtable
define hidden void @avifCodecEncodeOutputDestroy(ptr noundef %0) #0 {
  %2 = alloca ptr, align 8
  %3 = alloca i32, align 4
  store ptr %0, ptr %2, align 8
  store i32 0, ptr %3, align 4
  br label %4

4:                                                ; preds = %20, %1
  %5 = load i32, ptr %3, align 4
  %6 = load ptr, ptr %2, align 8
  %7 = getelementptr inbounds nuw %struct.avifCodecEncodeOutput, ptr %6, i32 0, i32 0
  %8 = getelementptr inbounds nuw %struct.avifEncodeSampleArray, ptr %7, i32 0, i32 2
  %9 = load i32, ptr %8, align 4
  %10 = icmp ult i32 %5, %9
  br i1 %10, label %11, label %23

11:                                               ; preds = %4
  %12 = load ptr, ptr %2, align 8
  %13 = getelementptr inbounds nuw %struct.avifCodecEncodeOutput, ptr %12, i32 0, i32 0
  %14 = getelementptr inbounds nuw %struct.avifEncodeSampleArray, ptr %13, i32 0, i32 0
  %15 = load ptr, ptr %14, align 8
  %16 = load i32, ptr %3, align 4
  %17 = zext i32 %16 to i64
  %18 = getelementptr inbounds %struct.avifEncodeSample, ptr %15, i64 %17
  %19 = getelementptr inbounds nuw %struct.avifEncodeSample, ptr %18, i32 0, i32 0
  call void @avifRWDataFree(ptr noundef %19)
  br label %20

20:                                               ; preds = %11
  %21 = load i32, ptr %3, align 4
  %22 = add i32 %21, 1
  store i32 %22, ptr %3, align 4
  br label %4, !llvm.loop !6

23:                                               ; preds = %4
  %24 = load ptr, ptr %2, align 8
  %25 = getelementptr inbounds nuw %struct.avifCodecEncodeOutput, ptr %24, i32 0, i32 0
  call void @avifArrayDestroy(ptr noundef %25)
  %26 = load ptr, ptr %2, align 8
  call void @avifFree(ptr noundef %26)
  ret void
}

; Function Attrs: nounwind uwtable
define hidden ptr @avifCodecEncodeOutputCreate() #0 {
  %1 = alloca ptr, align 8
  %2 = alloca ptr, align 8
  %3 = call ptr @avifAlloc(i64 noundef 24)
  store ptr %3, ptr %2, align 8
  %4 = load ptr, ptr %2, align 8
  %5 = icmp eq ptr %4, null
  br i1 %5, label %6, label %7

6:                                                ; preds = %0
  store ptr null, ptr %1, align 8
  br label %17

7:                                                ; preds = %0
  %8 = load ptr, ptr %2, align 8
  call void @llvm.memset.p0.i64(ptr align 8 %8, i8 0, i64 24, i1 false)
  %9 = load ptr, ptr %2, align 8
  %10 = getelementptr inbounds nuw %struct.avifCodecEncodeOutput, ptr %9, i32 0, i32 0
  %11 = call i32 @avifArrayCreate(ptr noundef %10, i32 noundef 24, i32 noundef 1)
  %12 = icmp ne i32 %11, 0
  br i1 %12, label %15, label %13

13:                                               ; preds = %7
  %14 = load ptr, ptr %2, align 8
  call void @avifCodecEncodeOutputDestroy(ptr noundef %14)
  store ptr null, ptr %1, align 8
  br label %17

15:                                               ; preds = %7
  %16 = load ptr, ptr %2, align 8
  store ptr %16, ptr %1, align 8
  br label %17

17:                                               ; preds = %15, %13, %6
  %18 = load ptr, ptr %1, align 8
  ret ptr %18
}

; Function Attrs: nounwind uwtable
define internal ptr @avifEncoderDataCreateItem(ptr noundef %0, ptr noundef %1, ptr noundef %2, i64 noundef %3, i32 noundef %4) #0 {
  %6 = alloca ptr, align 8
  %7 = alloca ptr, align 8
  %8 = alloca ptr, align 8
  %9 = alloca ptr, align 8
  %10 = alloca i64, align 8
  %11 = alloca i32, align 4
  %12 = alloca ptr, align 8
  store ptr %0, ptr %7, align 8
  store ptr %1, ptr %8, align 8
  store ptr %2, ptr %9, align 8
  store i64 %3, ptr %10, align 8
  store i32 %4, ptr %11, align 4
  %13 = load ptr, ptr %7, align 8
  %14 = getelementptr inbounds nuw %struct.avifEncoderData, ptr %13, i32 0, i32 0
  %15 = call ptr @avifArrayPush(ptr noundef %14)
  store ptr %15, ptr %12, align 8
  %16 = load ptr, ptr %12, align 8
  %17 = icmp eq ptr %16, null
  br i1 %17, label %18, label %19

18:                                               ; preds = %5
  store ptr null, ptr %6, align 8
  br label %74

19:                                               ; preds = %5
  %20 = load ptr, ptr %7, align 8
  %21 = getelementptr inbounds nuw %struct.avifEncoderData, ptr %20, i32 0, i32 12
  %22 = load i16, ptr %21, align 8
  %23 = add i16 %22, 1
  store i16 %23, ptr %21, align 8
  %24 = load ptr, ptr %7, align 8
  %25 = getelementptr inbounds nuw %struct.avifEncoderData, ptr %24, i32 0, i32 12
  %26 = load i16, ptr %25, align 8
  %27 = load ptr, ptr %12, align 8
  %28 = getelementptr inbounds nuw %struct.avifEncoderItem, ptr %27, i32 0, i32 0
  store i16 %26, ptr %28, align 8
  %29 = load ptr, ptr %12, align 8
  %30 = getelementptr inbounds nuw %struct.avifEncoderItem, ptr %29, i32 0, i32 1
  %31 = getelementptr inbounds [4 x i8], ptr %30, i64 0, i64 0
  %32 = load ptr, ptr %8, align 8
  call void @llvm.memcpy.p0.p0.i64(ptr align 2 %31, ptr align 1 %32, i64 4, i1 false)
  %33 = load ptr, ptr %9, align 8
  %34 = load ptr, ptr %12, align 8
  %35 = getelementptr inbounds nuw %struct.avifEncoderItem, ptr %34, i32 0, i32 9
  store ptr %33, ptr %35, align 8
  %36 = load i64, ptr %10, align 8
  %37 = load ptr, ptr %12, align 8
  %38 = getelementptr inbounds nuw %struct.avifEncoderItem, ptr %37, i32 0, i32 10
  store i64 %36, ptr %38, align 8
  %39 = call ptr @avifCodecEncodeOutputCreate()
  %40 = load ptr, ptr %12, align 8
  %41 = getelementptr inbounds nuw %struct.avifEncoderItem, ptr %40, i32 0, i32 3
  store ptr %39, ptr %41, align 8
  %42 = load ptr, ptr %12, align 8
  %43 = getelementptr inbounds nuw %struct.avifEncoderItem, ptr %42, i32 0, i32 3
  %44 = load ptr, ptr %43, align 8
  %45 = icmp eq ptr %44, null
  br i1 %45, label %46, label %47

46:                                               ; preds = %19
  br label %58

47:                                               ; preds = %19
  %48 = load i32, ptr %11, align 4
  %49 = load ptr, ptr %12, align 8
  %50 = getelementptr inbounds nuw %struct.avifEncoderItem, ptr %49, i32 0, i32 6
  store i32 %48, ptr %50, align 4
  %51 = load ptr, ptr %12, align 8
  %52 = getelementptr inbounds nuw %struct.avifEncoderItem, ptr %51, i32 0, i32 13
  %53 = call i32 @avifArrayCreate(ptr noundef %52, i32 noundef 8, i32 noundef 4)
  %54 = icmp ne i32 %53, 0
  br i1 %54, label %56, label %55

55:                                               ; preds = %47
  br label %58

56:                                               ; preds = %47
  %57 = load ptr, ptr %12, align 8
  store ptr %57, ptr %6, align 8
  br label %74

58:                                               ; preds = %55, %46
  %59 = load ptr, ptr %12, align 8
  %60 = getelementptr inbounds nuw %struct.avifEncoderItem, ptr %59, i32 0, i32 3
  %61 = load ptr, ptr %60, align 8
  %62 = icmp ne ptr %61, null
  br i1 %62, label %63, label %67

63:                                               ; preds = %58
  %64 = load ptr, ptr %12, align 8
  %65 = getelementptr inbounds nuw %struct.avifEncoderItem, ptr %64, i32 0, i32 3
  %66 = load ptr, ptr %65, align 8
  call void @avifCodecEncodeOutputDestroy(ptr noundef %66)
  br label %67

67:                                               ; preds = %63, %58
  %68 = load ptr, ptr %7, align 8
  %69 = getelementptr inbounds nuw %struct.avifEncoderData, ptr %68, i32 0, i32 12
  %70 = load i16, ptr %69, align 8
  %71 = add i16 %70, -1
  store i16 %71, ptr %69, align 8
  %72 = load ptr, ptr %7, align 8
  %73 = getelementptr inbounds nuw %struct.avifEncoderData, ptr %72, i32 0, i32 0
  call void @avifArrayPop(ptr noundef %73)
  store ptr null, ptr %6, align 8
  br label %74

74:                                               ; preds = %67, %56, %18
  %75 = load ptr, ptr %6, align 8
  ret ptr %75
}