; Function Attrs: nounwind uwtable
define internal fastcc ptr @avifEncoderDataCreateItem(ptr noundef %0, ptr nocapture noundef readonly %1, ptr noundef %2, i64 noundef %3, i32 noundef %4) unnamed_addr #1 {
  %6 = tail call ptr @avifArrayPush(ptr noundef %0) #13
  %7 = icmp eq ptr %6, null
  br i1 %7, label %46, label %8

8:                                                ; preds = %5
  %9 = getelementptr inbounds nuw i8, ptr %0, i64 472
  %10 = load i16, ptr %9, align 8
  %11 = add i16 %10, 1
  store i16 %11, ptr %9, align 8
  store i16 %11, ptr %6, align 8
  %12 = getelementptr inbounds nuw i8, ptr %6, i64 2
  %13 = load i32, ptr %1, align 1
  store i32 %13, ptr %12, align 2
  %14 = getelementptr inbounds nuw i8, ptr %6, i64 64
  store ptr %2, ptr %14, align 8
  %15 = getelementptr inbounds nuw i8, ptr %6, i64 72
  store i64 %3, ptr %15, align 8
  %16 = tail call ptr @avifAlloc(i64 noundef 24) #13
  %17 = icmp eq ptr %16, null
  br i1 %17, label %.thread, label %18

18:                                               ; preds = %8
  tail call void @llvm.memset.p0.i64(ptr noundef nonnull align 8 dereferenceable(24) %16, i8 0, i64 24, i1 false)
  %19 = tail call i32 @avifArrayCreate(ptr noundef nonnull %16, i32 noundef 24, i32 noundef 1) #13
  %.not.i = icmp eq i32 %19, 0
  br i1 %.not.i, label %20, label %29

20:                                               ; preds = %18
  %21 = getelementptr inbounds nuw i8, ptr %16, i64 12
  %22 = load i32, ptr %21, align 4
  %.not.i.i = icmp eq i32 %22, 0
  br i1 %.not.i.i, label %avifCodecEncodeOutputDestroy.exit.i, label %.lr.ph.i.i

.lr.ph.i.i:                                       ; preds = %20, %.lr.ph.i.i
  %indvars.iv.i.i = phi i64 [ %indvars.iv.next.i.i, %.lr.ph.i.i ], [ 0, %20 ]
  %23 = load ptr, ptr %16, align 8
  %24 = getelementptr inbounds %struct.avifEncodeSample, ptr %23, i64 %indvars.iv.i.i
  tail call void @avifRWDataFree(ptr noundef %24) #13
  %indvars.iv.next.i.i = add nuw nsw i64 %indvars.iv.i.i, 1
  %25 = load i32, ptr %21, align 4
  %26 = zext i32 %25 to i64
  %27 = icmp ult i64 %indvars.iv.next.i.i, %26
  br i1 %27, label %.lr.ph.i.i, label %avifCodecEncodeOutputDestroy.exit.i, !llvm.loop !4

avifCodecEncodeOutputDestroy.exit.i:              ; preds = %.lr.ph.i.i, %20
  tail call void @avifArrayDestroy(ptr noundef nonnull %16) #13
  tail call void @avifFree(ptr noundef nonnull %16) #13
  br label %.thread

.thread:                                          ; preds = %8, %avifCodecEncodeOutputDestroy.exit.i
  %28 = getelementptr inbounds nuw i8, ptr %6, i64 16
  store ptr null, ptr %28, align 8
  br label %43

29:                                               ; preds = %18
  %30 = getelementptr inbounds nuw i8, ptr %6, i64 16
  store ptr %16, ptr %30, align 8
  %31 = getelementptr inbounds nuw i8, ptr %6, i64 52
  store i32 %4, ptr %31, align 4
  %32 = getelementptr inbounds nuw i8, ptr %6, i64 96
  %33 = tail call i32 @avifArrayCreate(ptr noundef nonnull %32, i32 noundef 8, i32 noundef 4) #13
  %.not = icmp eq i32 %33, 0
  br i1 %.not, label %34, label %46

34:                                               ; preds = %29
  %.pr = load ptr, ptr %30, align 8
  %.not23 = icmp eq ptr %.pr, null
  br i1 %.not23, label %43, label %35

35:                                               ; preds = %34
  %36 = getelementptr inbounds nuw i8, ptr %.pr, i64 12
  %37 = load i32, ptr %36, align 4
  %.not.i24 = icmp eq i32 %37, 0
  br i1 %.not.i24, label %avifCodecEncodeOutputDestroy.exit, label %.lr.ph.i

.lr.ph.i:                                         ; preds = %35, %.lr.ph.i
  %indvars.iv.i = phi i64 [ %indvars.iv.next.i, %.lr.ph.i ], [ 0, %35 ]
  %38 = load ptr, ptr %.pr, align 8
  %39 = getelementptr inbounds %struct.avifEncodeSample, ptr %38, i64 %indvars.iv.i
  tail call void @avifRWDataFree(ptr noundef %39) #13
  %indvars.iv.next.i = add nuw nsw i64 %indvars.iv.i, 1
  %40 = load i32, ptr %36, align 4
  %41 = zext i32 %40 to i64
  %42 = icmp ult i64 %indvars.iv.next.i, %41
  br i1 %42, label %.lr.ph.i, label %avifCodecEncodeOutputDestroy.exit, !llvm.loop !4

avifCodecEncodeOutputDestroy.exit:                ; preds = %.lr.ph.i, %35
  tail call void @avifArrayDestroy(ptr noundef nonnull %.pr) #13
  tail call void @avifFree(ptr noundef nonnull %.pr) #13
  br label %43

43:                                               ; preds = %.thread, %avifCodecEncodeOutputDestroy.exit, %34
  %44 = load i16, ptr %9, align 8
  %45 = add i16 %44, -1
  store i16 %45, ptr %9, align 8
  tail call void @avifArrayPop(ptr noundef %0) #13
  br label %46

46:                                               ; preds = %29, %5, %43
  %.0 = phi ptr [ null, %43 ], [ null, %5 ], [ %6, %29 ]
  ret ptr %.0
}